target datalayout = "e-m:e-p270:32:32-p271:32:32-p272:64:64-i64:64-i128:128-f80:128-n8:16:32:64-S128"
target triple = "x86_64-pc-linux-gnu"

%"class.std::__shared_count" = type { ptr }
%"struct.arrow::Datum" = type { %"class.std::variant" }
%"class.std::variant" = type { %"struct.std::__detail::__variant::_Variant_base.base", [7 x i8] }
%"struct.std::__detail::__variant::_Variant_base.base" = type { %"struct.std::__detail::__variant::_Move_assign_base.base" }
%"struct.std::__detail::__variant::_Move_assign_base.base" = type { %"struct.std::__detail::__variant::_Copy_assign_base.base" }
%"struct.std::__detail::__variant::_Copy_assign_base.base" = type { %"struct.std::__detail::__variant::_Move_ctor_base.base" }
%"struct.std::__detail::__variant::_Move_ctor_base.base" = type { %"struct.std::__detail::__variant::_Copy_ctor_base.base" }
%"struct.std::__detail::__variant::_Copy_ctor_base.base" = type { %"struct.std::__detail::__variant::_Variant_storage.base" }
%"struct.std::__detail::__variant::_Variant_storage.base" = type { %"union.std::__detail::__variant::_Variadic_union", i8 }
%"union.std::__detail::__variant::_Variadic_union" = type { %"union.std::__detail::__variant::_Variadic_union.7" }
%"union.std::__detail::__variant::_Variadic_union.7" = type { %"struct.std::__detail::__variant::_Uninitialized.8" }
%"struct.std::__detail::__variant::_Uninitialized.8" = type { %"struct.__gnu_cxx::__aligned_membuf" }
%"struct.__gnu_cxx::__aligned_membuf" = type { [16 x i8] }
%"class.std::__shared_ptr.29" = type { ptr, %"class.std::__shared_count" }
%"struct.std::__detail::__variant::_Variant_storage" = type { %"union.std::__detail::__variant::_Variadic_union", i8, [7 x i8] }
%"struct.std::__detail::__variant::_Uninitialized.16" = type { %"struct.__gnu_cxx::__aligned_membuf.17" }
%"struct.__gnu_cxx::__aligned_membuf.17" = type { [16 x i8] }

; Function Attrs: mustprogress nounwind uwtable
define linkonce_odr void @_ZNSt14__shared_countILN9__gnu_cxx12_Lock_policyE2EE7_M_swapERS2_(ptr noundef nonnull align 8 dereferenceable(8) %0, ptr noundef nonnull align 8 dereferenceable(8) %1) #0 comdat align 2 {
  %3 = alloca ptr, align 8
  %4 = alloca ptr, align 8
  %5 = alloca ptr, align 8
  store ptr %0, ptr %3, align 8, !tbaa !294
  store ptr %1, ptr %4, align 8, !tbaa !294
  %6 = load ptr, ptr %3, align 8
  call void @llvm.lifetime.start.p0(i64 8, ptr %5) #5
  %7 = load ptr, ptr %4, align 8, !tbaa !294
  %8 = getelementptr inbounds nuw %"class.std::__shared_count", ptr %7, i32 0, i32 0
  %9 = load ptr, ptr %8, align 8, !tbaa !296
  store ptr %9, ptr %5, align 8, !tbaa !297
  %10 = getelementptr inbounds nuw %"class.std::__shared_count", ptr %6, i32 0, i32 0
  %11 = load ptr, ptr %10, align 8, !tbaa !296
  %12 = load ptr, ptr %4, align 8, !tbaa !294
  %13 = getelementptr inbounds nuw %"class.std::__shared_count", ptr %12, i32 0, i32 0
  store ptr %11, ptr %13, align 8, !tbaa !296
  %14 = load ptr, ptr %5, align 8, !tbaa !297
  %15 = getelementptr inbounds nuw %"class.std::__shared_count", ptr %6, i32 0, i32 0
  store ptr %14, ptr %15, align 8, !tbaa !296
  call void @llvm.lifetime.end.p0(i64 8, ptr %5) #5
  ret void
}

; Function Attrs: mustprogress nounwind uwtable
define linkonce_odr void @_ZNSt14__shared_countILN9__gnu_cxx12_Lock_policyE2EEC2Ev(ptr noundef nonnull align 8 dereferenceable(8) %0) unnamed_addr #0 comdat align 2 {
  %2 = alloca ptr, align 8
  store ptr %0, ptr %2, align 8, !tbaa !294
  %3 = load ptr, ptr %2, align 8
  %4 = getelementptr inbounds nuw %"class.std::__shared_count", ptr %3, i32 0, i32 0
  store ptr null, ptr %4, align 8, !tbaa !296
  ret void
}

; Function Attrs: mustprogress nounwind uwtable
define linkonce_odr void @_ZNSt12__shared_ptrIN5arrow11RecordBatchELN9__gnu_cxx12_Lock_policyE2EEC2EOS4_(ptr noundef nonnull align 8 dereferenceable(16) %0, ptr noundef nonnull align 8 dereferenceable(16) %1) unnamed_addr #0 comdat align 2 {
  %3 = alloca ptr, align 8
  %4 = alloca ptr, align 8
  store ptr %0, ptr %3, align 8, !tbaa !192
  store ptr %1, ptr %4, align 8, !tbaa !192
  %5 = load ptr, ptr %3, align 8
  %6 = getelementptr inbounds nuw %"class.std::__shared_ptr.29", ptr %5, i32 0, i32 0
  %7 = load ptr, ptr %4, align 8, !tbaa !192
  %8 = getelementptr inbounds nuw %"class.std::__shared_ptr.29", ptr %7, i32 0, i32 0
  %9 = load ptr, ptr %8, align 8, !tbaa !360
  store ptr %9, ptr %6, align 8, !tbaa !360
  %10 = getelementptr inbounds nuw %"class.std::__shared_ptr.29", ptr %5, i32 0, i32 1
  call void @_ZNSt14__shared_countILN9__gnu_cxx12_Lock_policyE2EEC2Ev(ptr noundef nonnull align 8 dereferenceable(8) %10) #5
  %11 = getelementptr inbounds nuw %"class.std::__shared_ptr.29", ptr %5, i32 0, i32 1
  %12 = load ptr, ptr %4, align 8, !tbaa !192
  %13 = getelementptr inbounds nuw %"class.std::__shared_ptr.29", ptr %12, i32 0, i32 1
  call void @_ZNSt14__shared_countILN9__gnu_cxx12_Lock_policyE2EE7_M_swapERS2_(ptr noundef nonnull align 8 dereferenceable(8) %11, ptr noundef nonnull align 8 dereferenceable(8) %13) #5
  %14 = load ptr, ptr %4, align 8, !tbaa !192
  %15 = getelementptr inbounds nuw %"class.std::__shared_ptr.29", ptr %14, i32 0, i32 0
  store ptr null, ptr %15, align 8, !tbaa !360
  ret void
}

; Function Attrs: mustprogress nounwind uwtable
define linkonce_odr void @_ZNSt10shared_ptrIN5arrow11RecordBatchEEC2EOS2_(ptr noundef nonnull align 8 dereferenceable(16) %0, ptr noundef nonnull align 8 dereferenceable(16) %1) unnamed_addr #0 comdat align 2 {
  %3 = alloca ptr, align 8
  %4 = alloca ptr, align 8
  store ptr %0, ptr %3, align 8, !tbaa !77
  store ptr %1, ptr %4, align 8, !tbaa !77
  %5 = load ptr, ptr %3, align 8
  %6 = load ptr, ptr %4, align 8, !tbaa !77
  call void @_ZNSt12__shared_ptrIN5arrow11RecordBatchELN9__gnu_cxx12_Lock_policyE2EEC2EOS4_(ptr noundef nonnull align 8 dereferenceable(16) %5, ptr noundef nonnull align 8 dereferenceable(16) %6) #5
  ret void
}

; Function Attrs: mustprogress nounwind uwtable
define linkonce_odr void @_ZNSt8__detail9__variant14_UninitializedISt10shared_ptrIN5arrow11RecordBatchEELb0EEC2IJS5_EEESt16in_place_index_tILm0EEDpOT_(ptr noundef nonnull align 8 dereferenceable(16) %0, ptr noundef nonnull align 8 dereferenceable(16) %1) unnamed_addr #0 comdat align 2 {
  %3 = alloca ptr, align 8
  %4 = alloca ptr, align 8
  store ptr %0, ptr %3, align 8, !tbaa !348
  store ptr %1, ptr %4, align 8, !tbaa !77
  %5 = load ptr, ptr %3, align 8
  %6 = getelementptr inbounds nuw %"struct.std::__detail::__variant::_Uninitialized.16", ptr %5, i32 0, i32 0
  %7 = load ptr, ptr %4, align 8, !tbaa !77
  call void @_ZNSt10shared_ptrIN5arrow11RecordBatchEEC2EOS2_(ptr noundef nonnull align 8 dereferenceable(16) %6, ptr noundef nonnull align 8 dereferenceable(16) %7) #5
  ret void
}

; Function Attrs: mustprogress uwtable
define linkonce_odr void @_ZNSt8__detail9__variant15_Variadic_unionIJSt10shared_ptrIN5arrow11RecordBatchEES2_INS3_5TableEEEEC2IJS5_EEESt16in_place_index_tILm0EEDpOT_(ptr noundef nonnull align 8 dereferenceable(16) %0, ptr noundef nonnull align 8 dereferenceable(16) %1) unnamed_addr #1 comdat align 2 {
  %3 = alloca ptr, align 8
  %4 = alloca ptr, align 8
  store ptr %0, ptr %3, align 8, !tbaa !358
  store ptr %1, ptr %4, align 8, !tbaa !77
  %5 = load ptr, ptr %3, align 8
  %6 = load ptr, ptr %4, align 8, !tbaa !77
  call void @_ZNSt8__detail9__variant14_UninitializedISt10shared_ptrIN5arrow11RecordBatchEELb0EEC2IJS5_EEESt16in_place_index_tILm0EEDpOT_(ptr noundef nonnull align 8 dereferenceable(16) %5, ptr noundef nonnull align 8 dereferenceable(16) %6)
  ret void
}

; Function Attrs: mustprogress uwtable
define linkonce_odr void @_ZNSt8__detail9__variant15_Variadic_unionIJSt10shared_ptrIN5arrow12ChunkedArrayEES2_INS3_11RecordBatchEES2_INS3_5TableEEEEC2ILm1EJS7_EEESt16in_place_index_tIXT_EEDpOT0_(ptr noundef nonnull align 8 dereferenceable(16) %0, ptr noundef nonnull align 8 dereferenceable(16) %1) unnamed_addr #1 comdat align 2 {
  %3 = alloca ptr, align 8
  %4 = alloca ptr, align 8
  store ptr %0, ptr %3, align 8, !tbaa !342
  store ptr %1, ptr %4, align 8, !tbaa !77
  %5 = load ptr, ptr %3, align 8
  %6 = load ptr, ptr %4, align 8, !tbaa !77
  call void @_ZNSt8__detail9__variant15_Variadic_unionIJSt10shared_ptrIN5arrow11RecordBatchEES2_INS3_5TableEEEEC2IJS5_EEESt16in_place_index_tILm0EEDpOT_(ptr noundef nonnull align 8 dereferenceable(16) %5, ptr noundef nonnull align 8 dereferenceable(16) %6)
  ret void
}

; Function Attrs: mustprogress uwtable
define linkonce_odr void @_ZNSt8__detail9__variant15_Variadic_unionIJSt10shared_ptrIN5arrow9ArrayDataEES2_INS3_12ChunkedArrayEES2_INS3_11RecordBatchEES2_INS3_5TableEEEEC2ILm2EJS9_EEESt16in_place_index_tIXT_EEDpOT0_(ptr noundef nonnull align 8 dereferenceable(16) %0, ptr noundef nonnull align 8 dereferenceable(16) %1) unnamed_addr #1 comdat align 2 {
  %3 = alloca ptr, align 8
  %4 = alloca ptr, align 8
  store ptr %0, ptr %3, align 8, !tbaa !318
  store ptr %1, ptr %4, align 8, !tbaa !77
  %5 = load ptr, ptr %3, align 8
  %6 = load ptr, ptr %4, align 8, !tbaa !77
  call void @_ZNSt8__detail9__variant15_Variadic_unionIJSt10shared_ptrIN5arrow12ChunkedArrayEES2_INS3_11RecordBatchEES2_INS3_5TableEEEEC2ILm1EJS7_EEESt16in_place_index_tIXT_EEDpOT0_(ptr noundef nonnull align 8 dereferenceable(16) %5, ptr noundef nonnull align 8 dereferenceable(16) %6)
  ret void
}

; Function Attrs: mustprogress uwtable
define linkonce_odr void @_ZNSt8__detail9__variant15_Variadic_unionIJSt10shared_ptrIN5arrow6ScalarEES2_INS3_9ArrayDataEES2_INS3_12ChunkedArrayEES2_INS3_11RecordBatchEES2_INS3_5TableEEEEC2ILm3EJSB_EEESt16in_place_index_tIXT_EEDpOT0_(ptr noundef nonnull align 8 dereferenceable(16) %0, ptr noundef nonnull align 8 dereferenceable(16) %1) unnamed_addr #1 comdat align 2 {
  %3 = alloca ptr, align 8
  %4 = alloca ptr, align 8
  store ptr %0, ptr %3, align 8, !tbaa !316
  store ptr %1, ptr %4, align 8, !tbaa !77
  %5 = load ptr, ptr %3, align 8
  %6 = load ptr, ptr %4, align 8, !tbaa !77
  call void @_ZNSt8__detail9__variant15_Variadic_unionIJSt10shared_ptrIN5arrow9ArrayDataEES2_INS3_12ChunkedArrayEES2_INS3_11RecordBatchEES2_INS3_5TableEEEEC2ILm2EJS9_EEESt16in_place_index_tIXT_EEDpOT0_(ptr noundef nonnull align 8 dereferenceable(16) %5, ptr noundef nonnull align 8 dereferenceable(16) %6)
  ret void
}

; Function Attrs: mustprogress uwtable
define linkonce_odr void @_ZNSt8__detail9__variant15_Variadic_unionIJN5arrow5Datum5EmptyESt10shared_ptrINS2_6ScalarEES5_INS2_9ArrayDataEES5_INS2_12ChunkedArrayEES5_INS2_11RecordBatchEES5_INS2_5TableEEEEC2ILm4EJSD_EEESt16in_place_index_tIXT_EEDpOT0_(ptr noundef nonnull align 8 dereferenceable(16) %0, ptr noundef nonnull align 8 dereferenceable(16) %1) unnamed_addr #1 comdat align 2 {
  %3 = alloca ptr, align 8
  %4 = alloca ptr, align 8
  store ptr %0, ptr %3, align 8, !tbaa !314
  store ptr %1, ptr %4, align 8, !tbaa !77
  %5 = load ptr, ptr %3, align 8
  %6 = load ptr, ptr %4, align 8, !tbaa !77
  call void @_ZNSt8__detail9__variant15_Variadic_unionIJSt10shared_ptrIN5arrow6ScalarEES2_INS3_9ArrayDataEES2_INS3_12ChunkedArrayEES2_INS3_11RecordBatchEES2_INS3_5TableEEEEC2ILm3EJSB_EEESt16in_place_index_tIXT_EEDpOT0_(ptr noundef nonnull align 8 dereferenceable(16) %5, ptr noundef nonnull align 8 dereferenceable(16) %6)
  ret void
}

; Function Attrs: mustprogress uwtable
define linkonce_odr void @_ZNSt8__detail9__variant16_Variant_storageILb0EJN5arrow5Datum5EmptyESt10shared_ptrINS2_6ScalarEES5_INS2_9ArrayDataEES5_INS2_12ChunkedArrayEES5_INS2_11RecordBatchEES5_INS2_5TableEEEEC2ILm4EJSD_EEESt16in_place_index_tIXT_EEDpOT0_(ptr noundef nonnull align 8 dereferenceable(17) %0, ptr noundef nonnull align 8 dereferenceable(16) %1) unnamed_addr #1 comdat align 2 {
  %3 = alloca ptr, align 8
  %4 = alloca ptr, align 8
  store ptr %0, ptr %3, align 8, !tbaa !302
  store ptr %1, ptr %4, align 8, !tbaa !77
  %5 = load ptr, ptr %3, align 8
  %6 = getelementptr inbounds nuw %"struct.std::__detail::__variant::_Variant_storage", ptr %5, i32 0, i32 0
  %7 = load ptr, ptr %4, align 8, !tbaa !77
  call void @_ZNSt8__detail9__variant15_Variadic_unionIJN5arrow5Datum5EmptyESt10shared_ptrINS2_6ScalarEES5_INS2_9ArrayDataEES5_INS2_12ChunkedArrayEES5_INS2_11RecordBatchEES5_INS2_5TableEEEEC2ILm4EJSD_EEESt16in_place_index_tIXT_EEDpOT0_(ptr noundef nonnull align 8 dereferenceable(16) %6, ptr noundef nonnull align 8 dereferenceable(16) %7)
  %8 = getelementptr inbounds nuw %"struct.std::__detail::__variant::_Variant_storage", ptr %5, i32 0, i32 1
  store i8 4, ptr %8, align 8, !tbaa !312
  ret void
}

; Function Attrs: inlinehint mustprogress uwtable
define linkonce_odr void @_ZNSt8__detail9__variant15_Copy_ctor_baseILb0EJN5arrow5Datum5EmptyESt10shared_ptrINS2_6ScalarEES5_INS2_9ArrayDataEES5_INS2_12ChunkedArrayEES5_INS2_11RecordBatchEES5_INS2_5TableEEEECI2NS0_16_Variant_storageILb0EJS4_S7_S9_SB_SD_SF_EEEILm4EJSD_EEESt16in_place_index_tIXT_EEDpOT0_(ptr noundef nonnull align 8 dereferenceable(17) %0, ptr noundef nonnull align 8 dereferenceable(16) %1) unnamed_addr #3 comdat align 2 {
  %3 = alloca ptr, align 8
  %4 = alloca ptr, align 8
  store ptr %0, ptr %3, align 8, !tbaa !310
  store ptr %1, ptr %4, align 8, !tbaa !77
  %5 = load ptr, ptr %3, align 8
  %6 = load ptr, ptr %4, align 8
  call void @_ZNSt8__detail9__variant16_Variant_storageILb0EJN5arrow5Datum5EmptyESt10shared_ptrINS2_6ScalarEES5_INS2_9ArrayDataEES5_INS2_12ChunkedArrayEES5_INS2_11RecordBatchEES5_INS2_5TableEEEEC2ILm4EJSD_EEESt16in_place_index_tIXT_EEDpOT0_(ptr noundef nonnull align 8 dereferenceable(17) %5, ptr noundef nonnull align 8 dereferenceable(16) %6)
  ret void
}

; Function Attrs: inlinehint mustprogress uwtable
define linkonce_odr void @_ZNSt8__detail9__variant15_Move_ctor_baseILb0EJN5arrow5Datum5EmptyESt10shared_ptrINS2_6ScalarEES5_INS2_9ArrayDataEES5_INS2_12ChunkedArrayEES5_INS2_11RecordBatchEES5_INS2_5TableEEEECI2NS0_16_Variant_storageILb0EJS4_S7_S9_SB_SD_SF_EEEILm4EJSD_EEESt16in_place_index_tIXT_EEDpOT0_(ptr noundef nonnull align 8 dereferenceable(17) %0, ptr noundef nonnull align 8 dereferenceable(16) %1) unnamed_addr #3 comdat align 2 {
  %3 = alloca ptr, align 8
  %4 = alloca ptr, align 8
  store ptr %0, ptr %3, align 8, !tbaa !308
  store ptr %1, ptr %4, align 8, !tbaa !77
  %5 = load ptr, ptr %3, align 8
  %6 = load ptr, ptr %4, align 8
  call void @_ZNSt8__detail9__variant15_Copy_ctor_baseILb0EJN5arrow5Datum5EmptyESt10shared_ptrINS2_6ScalarEES5_INS2_9ArrayDataEES5_INS2_12ChunkedArrayEES5_INS2_11RecordBatchEES5_INS2_5TableEEEECI2NS0_16_Variant_storageILb0EJS4_S7_S9_SB_SD_SF_EEEILm4EJSD_EEESt16in_place_index_tIXT_EEDpOT0_(ptr noundef nonnull align 8 dereferenceable(17) %5, ptr noundef nonnull align 8 dereferenceable(16) %6)
  ret void
}

; Function Attrs: inlinehint mustprogress uwtable
define linkonce_odr void @_ZNSt8__detail9__variant17_Copy_assign_baseILb0EJN5arrow5Datum5EmptyESt10shared_ptrINS2_6ScalarEES5_INS2_9ArrayDataEES5_INS2_12ChunkedArrayEES5_INS2_11RecordBatchEES5_INS2_5TableEEEECI2NS0_16_Variant_storageILb0EJS4_S7_S9_SB_SD_SF_EEEILm4EJSD_EEESt16in_place_index_tIXT_EEDpOT0_(ptr noundef nonnull align 8 dereferenceable(17) %0, ptr noundef nonnull align 8 dereferenceable(16) %1) unnamed_addr #3 comdat align 2 {
  %3 = alloca ptr, align 8
  %4 = alloca ptr, align 8
  store ptr %0, ptr %3, align 8, !tbaa !306
  store ptr %1, ptr %4, align 8, !tbaa !77
  %5 = load ptr, ptr %3, align 8
  %6 = load ptr, ptr %4, align 8
  call void @_ZNSt8__detail9__variant15_Move_ctor_baseILb0EJN5arrow5Datum5EmptyESt10shared_ptrINS2_6ScalarEES5_INS2_9ArrayDataEES5_INS2_12ChunkedArrayEES5_INS2_11RecordBatchEES5_INS2_5TableEEEECI2NS0_16_Variant_storageILb0EJS4_S7_S9_SB_SD_SF_EEEILm4EJSD_EEESt16in_place_index_tIXT_EEDpOT0_(ptr noundef nonnull align 8 dereferenceable(17) %5, ptr noundef nonnull align 8 dereferenceable(16) %6)
  ret void
}

; Function Attrs: inlinehint mustprogress uwtable
define linkonce_odr void @_ZNSt8__detail9__variant17_Move_assign_baseILb0EJN5arrow5Datum5EmptyESt10shared_ptrINS2_6ScalarEES5_INS2_9ArrayDataEES5_INS2_12ChunkedArrayEES5_INS2_11RecordBatchEES5_INS2_5TableEEEECI2NS0_16_Variant_storageILb0EJS4_S7_S9_SB_SD_SF_EEEILm4EJSD_EEESt16in_place_index_tIXT_EEDpOT0_(ptr noundef nonnull align 8 dereferenceable(17) %0, ptr noundef nonnull align 8 dereferenceable(16) %1) unnamed_addr #3 comdat align 2 {
  %3 = alloca ptr, align 8
  %4 = alloca ptr, align 8
  store ptr %0, ptr %3, align 8, !tbaa !304
  store ptr %1, ptr %4, align 8, !tbaa !77
  %5 = load ptr, ptr %3, align 8
  %6 = load ptr, ptr %4, align 8
  call void @_ZNSt8__detail9__variant17_Copy_assign_baseILb0EJN5arrow5Datum5EmptyESt10shared_ptrINS2_6ScalarEES5_INS2_9ArrayDataEES5_INS2_12ChunkedArrayEES5_INS2_11RecordBatchEES5_INS2_5TableEEEECI2NS0_16_Variant_storageILb0EJS4_S7_S9_SB_SD_SF_EEEILm4EJSD_EEESt16in_place_index_tIXT_EEDpOT0_(ptr noundef nonnull align 8 dereferenceable(17) %5, ptr noundef nonnull align 8 dereferenceable(16) %6)
  ret void
}

; Function Attrs: mustprogress nounwind uwtable
define linkonce_odr void @_ZNSt27_Enable_default_constructorILb1ESt7variantIJN5arrow5Datum5EmptyESt10shared_ptrINS1_6ScalarEES4_INS1_9ArrayDataEES4_INS1_12ChunkedArrayEES4_INS1_11RecordBatchEES4_INS1_5TableEEEEEC2ESt31_Enable_default_constructor_tag(ptr noundef nonnull align 1 dereferenceable(1) %0) unnamed_addr #0 comdat align 2 {
  %2 = alloca ptr, align 8
  store ptr %0, ptr %2, align 8, !tbaa !300
  ret void
}

; Function Attrs: mustprogress uwtable
define linkonce_odr void @_ZNSt8__detail9__variant13_Variant_baseIJN5arrow5Datum5EmptyESt10shared_ptrINS2_6ScalarEES5_INS2_9ArrayDataEES5_INS2_12ChunkedArrayEES5_INS2_11RecordBatchEES5_INS2_5TableEEEEC2ILm4EJSD_EEESt16in_place_index_tIXT_EEDpOT0_(ptr noundef nonnull align 8 dereferenceable(17) %0, ptr noundef nonnull align 8 dereferenceable(16) %1) unnamed_addr #1 comdat align 2 {
  %3 = alloca ptr, align 8
  %4 = alloca ptr, align 8
  store ptr %0, ptr %3, align 8, !tbaa !298
  store ptr %1, ptr %4, align 8, !tbaa !77
  %5 = load ptr, ptr %3, align 8
  %6 = load ptr, ptr %4, align 8, !tbaa !77
  call void @_ZNSt8__detail9__variant17_Move_assign_baseILb0EJN5arrow5Datum5EmptyESt10shared_ptrINS2_6ScalarEES5_INS2_9ArrayDataEES5_INS2_12ChunkedArrayEES5_INS2_11RecordBatchEES5_INS2_5TableEEEECI2NS0_16_Variant_storageILb0EJS4_S7_S9_SB_SD_SF_EEEILm4EJSD_EEESt16in_place_index_tIXT_EEDpOT0_(ptr noundef nonnull align 8 dereferenceable(17) %5, ptr noundef nonnull align 8 dereferenceable(16) %6)
  ret void
}

; Function Attrs: noinline noreturn nounwind uwtable
define linkonce_odr hidden void @__clang_call_terminate(ptr noundef %0) #8 comdat {
  %2 = call ptr @__cxa_begin_catch(ptr %0) #5
  call void @_ZSt9terminatev() #19
  unreachable
}

; Function Attrs: mustprogress uwtable
define linkonce_odr void @_ZNSt7variantIJN5arrow5Datum5EmptyESt10shared_ptrINS0_6ScalarEES3_INS0_9ArrayDataEES3_INS0_12ChunkedArrayEES3_INS0_11RecordBatchEES3_INS0_5TableEEEEC2ILm4EJSB_ESB_vEESt16in_place_index_tIXT_EEDpOT0_(ptr noundef nonnull align 8 dereferenceable(17) %0, ptr noundef nonnull align 8 dereferenceable(16) %1) unnamed_addr #1 comdat align 2 {
  %3 = alloca ptr, align 8
  %4 = alloca ptr, align 8
  store ptr %0, ptr %3, align 8, !tbaa !75
  store ptr %1, ptr %4, align 8, !tbaa !77
  %5 = load ptr, ptr %3, align 8
  %6 = load ptr, ptr %4, align 8, !tbaa !77
  call void @_ZNSt8__detail9__variant13_Variant_baseIJN5arrow5Datum5EmptyESt10shared_ptrINS2_6ScalarEES5_INS2_9ArrayDataEES5_INS2_12ChunkedArrayEES5_INS2_11RecordBatchEES5_INS2_5TableEEEEC2ILm4EJSD_EEESt16in_place_index_tIXT_EEDpOT0_(ptr noundef nonnull align 8 dereferenceable(17) %5, ptr noundef nonnull align 8 dereferenceable(16) %6)
  call void @_ZNSt27_Enable_default_constructorILb1ESt7variantIJN5arrow5Datum5EmptyESt10shared_ptrINS1_6ScalarEES4_INS1_9ArrayDataEES4_INS1_12ChunkedArrayEES4_INS1_11RecordBatchEES4_INS1_5TableEEEEEC2ESt31_Enable_default_constructor_tag(ptr noundef nonnull align 1 dereferenceable(1) %5)
  ret void
}

; Function Attrs: mustprogress nounwind uwtable
define linkonce_odr void @_ZNSt7variantIJN5arrow5Datum5EmptyESt10shared_ptrINS0_6ScalarEES3_INS0_9ArrayDataEES3_INS0_12ChunkedArrayEES3_INS0_11RecordBatchEES3_INS0_5TableEEEEC2ISB_vvSB_vEEOT_(ptr noundef nonnull align 8 dereferenceable(17) %0, ptr noundef nonnull align 8 dereferenceable(16) %1) unnamed_addr #0 comdat align 2 personality ptr @__gxx_personality_v0 {
  %3 = alloca ptr, align 8
  %4 = alloca ptr, align 8
  store ptr %0, ptr %3, align 8, !tbaa !75
  store ptr %1, ptr %4, align 8, !tbaa !77
  %5 = load ptr, ptr %3, align 8
  %6 = load ptr, ptr %4, align 8, !tbaa !77
  invoke void @_ZNSt7variantIJN5arrow5Datum5EmptyESt10shared_ptrINS0_6ScalarEES3_INS0_9ArrayDataEES3_INS0_12ChunkedArrayEES3_INS0_11RecordBatchEES3_INS0_5TableEEEEC2ILm4EJSB_ESB_vEESt16in_place_index_tIXT_EEDpOT0_(ptr noundef nonnull align 8 dereferenceable(17) %5, ptr noundef nonnull align 8 dereferenceable(16) %6)
          to label %7 unwind label %8

7:                                                ; preds = %2
  ret void

8:                                                ; preds = %2
  %9 = landingpad { ptr, i32 }
          catch ptr null
  %10 = extractvalue { ptr, i32 } %9, 0
  call void @__clang_call_terminate(ptr %10) #19
  unreachable
}

; Function Attrs: mustprogress nounwind uwtable
define void @_ZN5arrow5DatumC2ESt10shared_ptrINS_11RecordBatchEE(ptr noundef nonnull align 8 dereferenceable(24) %0, ptr noundef %1) unnamed_addr #0 align 2 {
  %3 = alloca ptr, align 8
  %4 = alloca ptr, align 8
  store ptr %0, ptr %3, align 8, !tbaa !53
  store ptr %1, ptr %4, align 8, !tbaa !77
  %5 = load ptr, ptr %3, align 8
  %6 = getelementptr inbounds nuw %"struct.arrow::Datum", ptr %5, i32 0, i32 0
  call void @_ZNSt7variantIJN5arrow5Datum5EmptyESt10shared_ptrINS0_6ScalarEES3_INS0_9ArrayDataEES3_INS0_12ChunkedArrayEES3_INS0_11RecordBatchEES3_INS0_5TableEEEEC2ISB_vvSB_vEEOT_(ptr noundef nonnull align 8 dereferenceable(17) %6, ptr noundef nonnull align 8 dereferenceable(16) %1) #5
  ret void
}